target datalayout = "e-m:e-p270:32:32-p271:32:32-p272:64:64-i64:64-i128:128-f80:128-n8:16:32:64-S128"
target triple = "x86_64-pc-linux-gnu"

; Function Attrs: inlinehint nounwind uwtable
define internal i32 @encode_int_internal(ptr noundef %0, i32 noundef %1) #2 {
  %3 = alloca ptr, align 8
  %4 = alloca i32, align 4
  %5 = alloca i32, align 4
  %6 = alloca i32, align 4
  store ptr %0, ptr %3, align 8
  store i32 %1, ptr %4, align 4
  br label %7

7:                                                ; preds = %2
  call void @llvm.lifetime.start.p0(i64 4, ptr %5) #6
  store i32 1, ptr %5, align 4
  call void @llvm.lifetime.start.p0(i64 4, ptr %6) #6
  store i32 0, ptr %6, align 4
  %8 = load ptr, ptr %3, align 8
  call void @llvm.memset.p0.i64(ptr align 1 %8, i8 0, i64 5, i1 false)
  br label %9

9:                                                ; preds = %53, %7
  %10 = load i32, ptr %4, align 4
  %11 = icmp ne i32 %10, 0
  br i1 %11, label %12, label %58

12:                                               ; preds = %9
  %13 = load i32, ptr %5, align 4
  %14 = and i32 %13, 1
  %15 = icmp ne i32 %14, 0
  br i1 %15, label %16, label %34

16:                                               ; preds = %12
  %17 = load ptr, ptr %3, align 8
  %18 = load i32, ptr %5, align 4
  %19 = sdiv i32 %18, 2
  %20 = sext i32 %19 to i64
  %21 = getelementptr inbounds i8, ptr %17, i64 %20
  %22 = load i8, ptr %21, align 1
  %23 = zext i8 %22 to i32
  %24 = and i32 %23, 240
  %25 = load i32, ptr %4, align 4
  %26 = and i32 %25, 15
  %27 = or i32 %24, %26
  %28 = trunc i32 %27 to i8
  %29 = load ptr, ptr %3, align 8
  %30 = load i32, ptr %5, align 4
  %31 = sdiv i32 %30, 2
  %32 = sext i32 %31 to i64
  %33 = getelementptr inbounds i8, ptr %29, i64 %32
  store i8 %28, ptr %33, align 1
  br label %53

34:                                               ; preds = %12
  %35 = load ptr, ptr %3, align 8
  %36 = load i32, ptr %5, align 4
  %37 = sdiv i32 %36, 2
  %38 = sext i32 %37 to i64
  %39 = getelementptr inbounds i8, ptr %35, i64 %38
  %40 = load i8, ptr %39, align 1
  %41 = zext i8 %40 to i32
  %42 = and i32 %41, 15
  %43 = load i32, ptr %4, align 4
  %44 = and i32 %43, 15
  %45 = shl i32 %44, 4
  %46 = or i32 %42, %45
  %47 = trunc i32 %46 to i8
  %48 = load ptr, ptr %3, align 8
  %49 = load i32, ptr %5, align 4
  %50 = sdiv i32 %49, 2
  %51 = sext i32 %50 to i64
  %52 = getelementptr inbounds i8, ptr %48, i64 %51
  store i8 %47, ptr %52, align 1
  br label %53

53:                                               ; preds = %34, %16
  %54 = load i32, ptr %4, align 4
  %55 = lshr i32 %54, 4
  store i32 %55, ptr %4, align 4
  %56 = load i32, ptr %5, align 4
  %57 = add nsw i32 %56, 1
  store i32 %57, ptr %5, align 4
  br label %9, !llvm.loop !3

58:                                               ; preds = %9
  %59 = load i32, ptr %5, align 4
  %60 = icmp sgt i32 %59, 2
  br i1 %60, label %61, label %64

61:                                               ; preds = %58
  %62 = load i32, ptr %5, align 4
  %63 = sub nsw i32 %62, 2
  store i32 %63, ptr %6, align 4
  br label %64

64:                                               ; preds = %61, %58
  %65 = load ptr, ptr %3, align 8
  %66 = getelementptr inbounds i8, ptr %65, i64 0
  %67 = load i8, ptr %66, align 1
  %68 = zext i8 %67 to i32
  %69 = and i32 %68, 15
  %70 = load i32, ptr %6, align 4
  %71 = and i32 %70, 15
  %72 = shl i32 %71, 4
  %73 = or i32 %69, %72
  %74 = trunc i32 %73 to i8
  %75 = load ptr, ptr %3, align 8
  %76 = getelementptr inbounds i8, ptr %75, i64 0
  store i8 %74, ptr %76, align 1
  %77 = load i32, ptr %5, align 4
  %78 = add nsw i32 %77, 1
  %79 = sdiv i32 %78, 2
  call void @llvm.lifetime.end.p0(i64 4, ptr %6) #6
  call void @llvm.lifetime.end.p0(i64 4, ptr %5) #6
  br label %80

80:                                               ; preds = %64
  ret i32 %79
}

; Function Attrs: nounwind uwtable
define void @evtag_encode_int(ptr noundef %0, i32 noundef %1) #0 {
  %3 = alloca ptr, align 8
  %4 = alloca i32, align 4
  %5 = alloca [5 x i8], align 1
  %6 = alloca i32, align 4
  store ptr %0, ptr %3, align 8
  store i32 %1, ptr %4, align 4
  call void @llvm.lifetime.start.p0(i64 5, ptr %5) #6
  call void @llvm.lifetime.start.p0(i64 4, ptr %6) #6
  %7 = getelementptr inbounds [5 x i8], ptr %5, i64 0, i64 0
  %8 = load i32, ptr %4, align 4
  %9 = call i32 @encode_int_internal(ptr noundef %7, i32 noundef %8)
  store i32 %9, ptr %6, align 4
  %10 = load ptr, ptr %3, align 8
  %11 = getelementptr inbounds [5 x i8], ptr %5, i64 0, i64 0
  %12 = load i32, ptr %6, align 4
  %13 = sext i32 %12 to i64
  %14 = call i32 @evbuffer_add(ptr noundef %10, ptr noundef %11, i64 noundef %13)
  call void @llvm.lifetime.end.p0(i64 4, ptr %6) #6
  call void @llvm.lifetime.end.p0(i64 5, ptr %5) #6
  ret void
}

; Function Attrs: nounwind uwtable
define i32 @evtag_encode_tag(ptr noundef %0, i32 noundef %1) #0 {
  %3 = alloca ptr, align 8
  %4 = alloca i32, align 4
  %5 = alloca i32, align 4
  %6 = alloca [5 x i8], align 1
  %7 = alloca i8, align 1
  store ptr %0, ptr %3, align 8
  store i32 %1, ptr %4, align 4
  call void @llvm.lifetime.start.p0(i64 4, ptr %5) #6
  store i32 0, ptr %5, align 4
  call void @llvm.lifetime.start.p0(i64 5, ptr %6) #6
  %8 = getelementptr inbounds [5 x i8], ptr %6, i64 0, i64 0
  call void @llvm.memset.p0.i64(ptr align 1 %8, i8 0, i64 5, i1 false)
  br label %9

9:                                                ; preds = %28, %2
  call void @llvm.lifetime.start.p0(i64 1, ptr %7) #6
  %10 = load i32, ptr %4, align 4
  %11 = and i32 %10, 127
  %12 = trunc i32 %11 to i8
  store i8 %12, ptr %7, align 1
  %13 = load i32, ptr %4, align 4
  %14 = lshr i32 %13, 7
  store i32 %14, ptr %4, align 4
  %15 = load i32, ptr %4, align 4
  %16 = icmp ne i32 %15, 0
  br i1 %16, label %17, label %22

17:                                               ; preds = %9
  %18 = load i8, ptr %7, align 1
  %19 = zext i8 %18 to i32
  %20 = or i32 %19, 128
  %21 = trunc i32 %20 to i8
  store i8 %21, ptr %7, align 1
  br label %22

22:                                               ; preds = %17, %9
  %23 = load i8, ptr %7, align 1
  %24 = load i32, ptr %5, align 4
  %25 = add nsw i32 %24, 1
  store i32 %25, ptr %5, align 4
  %26 = sext i32 %24 to i64
  %27 = getelementptr inbounds [5 x i8], ptr %6, i64 0, i64 %26
  store i8 %23, ptr %27, align 1
  call void @llvm.lifetime.end.p0(i64 1, ptr %7) #6
  br label %28

28:                                               ; preds = %22
  %29 = load i32, ptr %4, align 4
  %30 = icmp ne i32 %29, 0
  br i1 %30, label %9, label %31, !llvm.loop !6

31:                                               ; preds = %28
  %32 = load ptr, ptr %3, align 8
  %33 = icmp ne ptr %32, null
  br i1 %33, label %34, label %40

34:                                               ; preds = %31
  %35 = load ptr, ptr %3, align 8
  %36 = getelementptr inbounds [5 x i8], ptr %6, i64 0, i64 0
  %37 = load i32, ptr %5, align 4
  %38 = sext i32 %37 to i64
  %39 = call i32 @evbuffer_add(ptr noundef %35, ptr noundef %36, i64 noundef %38)
  br label %40

40:                                               ; preds = %34, %31
  %41 = load i32, ptr %5, align 4
  call void @llvm.lifetime.end.p0(i64 5, ptr %6) #6
  call void @llvm.lifetime.end.p0(i64 4, ptr %5) #6
  ret i32 %41
}

; Function Attrs: nounwind uwtable
define void @evtag_marshal_buffer(ptr noundef %0, i32 noundef %1, ptr noundef %2) #0 {
  %4 = alloca ptr, align 8
  %5 = alloca i32, align 4
  %6 = alloca ptr, align 8
  store ptr %0, ptr %4, align 8
  store i32 %1, ptr %5, align 4
  store ptr %2, ptr %6, align 8
  %7 = load ptr, ptr %4, align 8
  %8 = load i32, ptr %5, align 4
  %9 = call i32 @evtag_encode_tag(ptr noundef %7, i32 noundef %8)
  %10 = load ptr, ptr %4, align 8
  %11 = load ptr, ptr %6, align 8
  %12 = call i64 @evbuffer_get_length(ptr noundef %11)
  %13 = trunc i64 %12 to i32
  call void @evtag_encode_int(ptr noundef %10, i32 noundef %13)
  %14 = load ptr, ptr %4, align 8
  %15 = load ptr, ptr %6, align 8
  %16 = call i32 @evbuffer_add_buffer(ptr noundef %14, ptr noundef %15)
  ret void
}