; Function Attrs: nounwind uwtable
define void @evtag_marshal_buffer(ptr noundef %0, i32 noundef %1, ptr noundef %2) local_unnamed_addr #1 {
  %4 = alloca [5 x i8], align 1
  %5 = alloca [5 x i8], align 1
  call void @llvm.lifetime.start.p0(i64 5, ptr nonnull %5) #7
  call void @llvm.memset.p0.i64(ptr noundef nonnull align 1 dereferenceable(5) %5, i8 0, i64 5, i1 false)
  br label %6

6:                                                ; preds = %6, %3
  %indvars.iv.i = phi i64 [ %indvars.iv.next.i, %6 ], [ 0, %3 ]
  %.011.i = phi i32 [ %9, %6 ], [ %1, %3 ]
  %7 = trunc i32 %.011.i to i8
  %8 = and i8 %7, 127
  %9 = lshr i32 %.011.i, 7
  %.not.i = icmp ult i32 %.011.i, 128
  %masksel.i = select i1 %.not.i, i8 0, i8 -128
  %.0.i = or disjoint i8 %8, %masksel.i
  %indvars.iv.next.i = add nuw nsw i64 %indvars.iv.i, 1
  %10 = getelementptr inbounds nuw [5 x i8], ptr %5, i64 0, i64 %indvars.iv.i
  store i8 %.0.i, ptr %10, align 1
  br i1 %.not.i, label %11, label %6, !llvm.loop !6

11:                                               ; preds = %6
  %.not14.i = icmp eq ptr %0, null
  br i1 %.not14.i, label %evtag_encode_tag.exit, label %12

12:                                               ; preds = %11
  %13 = and i64 %indvars.iv.next.i, 4294967295
  %14 = call i32 @evbuffer_add(ptr noundef nonnull %0, ptr noundef nonnull %5, i64 noundef %13) #7
  br label %evtag_encode_tag.exit

evtag_encode_tag.exit:                            ; preds = %11, %12
  call void @llvm.lifetime.end.p0(i64 5, ptr nonnull %5) #7
  %15 = call i64 @evbuffer_get_length(ptr noundef %2) #7
  %16 = trunc i64 %15 to i32
  call void @llvm.lifetime.start.p0(i64 5, ptr nonnull %4) #7
  call void @llvm.memset.p0.i64(ptr noundef nonnull align 1 dereferenceable(5) %4, i8 0, i64 5, i1 false)
  %.not23.i.i = icmp eq i32 %16, 0
  br i1 %.not23.i.i, label %evtag_encode_int.exit, label %.lr.ph.i.i

.lr.ph.i.i:                                       ; preds = %evtag_encode_tag.exit, %30
  %.02025.i.i = phi i32 [ %32, %30 ], [ 1, %evtag_encode_tag.exit ]
  %.02124.i.i = phi i32 [ %31, %30 ], [ %16, %evtag_encode_tag.exit ]
  %17 = and i32 %.02025.i.i, 1
  %.not22.i.i = icmp eq i32 %17, 0
  %18 = lshr i32 %.02025.i.i, 1
  %19 = zext nneg i32 %18 to i64
  %20 = getelementptr inbounds nuw i8, ptr %4, i64 %19
  %21 = load i8, ptr %20, align 1
  %.021.tr.i.i = trunc i32 %.02124.i.i to i8
  br i1 %.not22.i.i, label %26, label %22

22:                                               ; preds = %.lr.ph.i.i
  %23 = and i8 %21, -16
  %24 = and i8 %.021.tr.i.i, 15
  %25 = or disjoint i8 %23, %24
  br label %30

26:                                               ; preds = %.lr.ph.i.i
  %27 = and i8 %21, 15
  %28 = shl i8 %.021.tr.i.i, 4
  %29 = or disjoint i8 %27, %28
  br label %30

30:                                               ; preds = %26, %22
  %.sink.i.i = phi i8 [ %29, %26 ], [ %25, %22 ]
  store i8 %.sink.i.i, ptr %20, align 1
  %31 = lshr i32 %.02124.i.i, 4
  %32 = add nuw nsw i32 %.02025.i.i, 1
  %.not.i.i = icmp ult i32 %.02124.i.i, 16
  br i1 %.not.i.i, label %._crit_edge.i.i, label %.lr.ph.i.i, !llvm.loop !3

._crit_edge.i.i:                                  ; preds = %30
  %.pre.i.i = load i8, ptr %4, align 1
  %33 = and i8 %.pre.i.i, 15
  %34 = icmp samesign ugt i32 %.02025.i.i, 1
  %.020.tr.i.i = trunc i32 %32 to i8
  %35 = shl i8 %.020.tr.i.i, 4
  %36 = add i8 %35, -32
  %spec.select.i.i = select i1 %34, i8 %36, i8 0
  %37 = or disjoint i8 %33, %spec.select.i.i
  %38 = add nuw i32 %.02025.i.i, 2
  %39 = lshr i32 %38, 1
  %40 = zext nneg i32 %39 to i64
  br label %evtag_encode_int.exit

evtag_encode_int.exit:                            ; preds = %evtag_encode_tag.exit, %._crit_edge.i.i
  %.020.lcssa29.i.i = phi i64 [ 1, %evtag_encode_tag.exit ], [ %40, %._crit_edge.i.i ]
  %41 = phi i8 [ 0, %evtag_encode_tag.exit ], [ %37, %._crit_edge.i.i ]
  store i8 %41, ptr %4, align 1
  %42 = call i32 @evbuffer_add(ptr noundef %0, ptr noundef nonnull %4, i64 noundef %.020.lcssa29.i.i) #7
  call void @llvm.lifetime.end.p0(i64 5, ptr nonnull %4) #7
  %43 = call i32 @evbuffer_add_buffer(ptr noundef %0, ptr noundef %2) #7
  ret void
}